target datalayout = "e-m:e-p270:32:32-p271:32:32-p272:64:64-i64:64-i128:128-f80:128-n8:16:32:64-S128"
target triple = "x86_64-unknown-linux-gnu"

%"class.icu_75::UnicodeString" = type { %"class.icu_75::Replaceable", %"union.icu_75::UnicodeString::StackBufferOrFields" }
%"class.icu_75::Replaceable" = type { %"class.icu_75::UObject" }
%"class.icu_75::UObject" = type { ptr }
%"union.icu_75::UnicodeString::StackBufferOrFields" = type { %struct.anon.0, [32 x i8] }
%struct.anon.0 = type { i16, i32, i32, ptr }
%"class.icu_75::EscapeTransliterator" = type { %"class.icu_75::Transliterator.base", %"class.icu_75::UnicodeString", %"class.icu_75::UnicodeString", i32, i32, i8, ptr }
%"class.icu_75::Transliterator.base" = type <{ %"class.icu_75::UObject", %"class.icu_75::UnicodeString", ptr, i32 }>

; Function Attrs: mustprogress nounwind uwtable
define void @_ZN6icu_7520EscapeTransliteratorD2Ev(ptr noundef nonnull align 8 dereferenceable(240) %this) unnamed_addr #0 align 2 {
entry:
  %this.addr = alloca ptr, align 8
  store ptr %this, ptr %this.addr, align 8
  %this1 = load ptr, ptr %this.addr, align 8
  store ptr getelementptr inbounds ({ [19 x ptr] }, ptr @_ZTVN6icu_7520EscapeTransliteratorE, i32 0, i32 0, i32 2), ptr %this1, align 8
  %supplementalHandler = getelementptr inbounds %"class.icu_75::EscapeTransliterator", ptr %this1, i32 0, i32 6
  %0 = load ptr, ptr %supplementalHandler, align 8
  %isnull = icmp eq ptr %0, null
  br i1 %isnull, label %delete.end, label %delete.notnull

delete.notnull:                                   ; preds = %entry
  %vtable = load ptr, ptr %0, align 8
  %vfn = getelementptr inbounds ptr, ptr %vtable, i64 1
  %1 = load ptr, ptr %vfn, align 8
  call void %1(ptr noundef nonnull align 8 dereferenceable(240) %0) #7
  br label %delete.end

delete.end:                                       ; preds = %delete.notnull, %entry
  %suffix = getelementptr inbounds %"class.icu_75::EscapeTransliterator", ptr %this1, i32 0, i32 2
  call void @_ZN6icu_7513UnicodeStringD1Ev(ptr noundef nonnull align 8 dereferenceable(64) %suffix) #7
  %prefix = getelementptr inbounds %"class.icu_75::EscapeTransliterator", ptr %this1, i32 0, i32 1
  call void @_ZN6icu_7513UnicodeStringD1Ev(ptr noundef nonnull align 8 dereferenceable(64) %prefix) #7
  call void @_ZN6icu_7514TransliteratorD2Ev(ptr noundef nonnull align 8 dereferenceable(84) %this1) #7
  ret void
}