; Function Attrs: mustprogress nounwind uwtable
define void @_ZN6icu_7520EscapeTransliteratorD2Ev(ptr noundef nonnull align 8 dereferenceable(240) %this) unnamed_addr #0 align 2 {
entry:
  store ptr getelementptr inbounds ({ [19 x ptr] }, ptr @_ZTVN6icu_7520EscapeTransliteratorE, i64 0, i32 0, i64 2), ptr %this, align 8
  %supplementalHandler = getelementptr inbounds i8, ptr %this, i64 232
  %0 = load ptr, ptr %supplementalHandler, align 8
  %isnull = icmp eq ptr %0, null
  br i1 %isnull, label %delete.end, label %delete.notnull

delete.notnull:                                   ; preds = %entry
  %vtable = load ptr, ptr %0, align 8
  %vfn = getelementptr inbounds i8, ptr %vtable, i64 8
  %1 = load ptr, ptr %vfn, align 8
  tail call void %1(ptr noundef nonnull align 8 dereferenceable(240) %0) #9
  br label %delete.end

delete.end:                                       ; preds = %delete.notnull, %entry
  %suffix = getelementptr inbounds i8, ptr %this, i64 152
  tail call void @_ZN6icu_7513UnicodeStringD1Ev(ptr noundef nonnull align 8 dereferenceable(64) %suffix) #9
  %prefix = getelementptr inbounds i8, ptr %this, i64 88
  tail call void @_ZN6icu_7513UnicodeStringD1Ev(ptr noundef nonnull align 8 dereferenceable(64) %prefix) #9
  tail call void @_ZN6icu_7514TransliteratorD2Ev(ptr noundef nonnull align 8 dereferenceable(84) %this) #9
  ret void
}